; ModuleID = '9/1523.c'
source_filename = "9/1523.c"
target datalayout = "e-m:e-p270:32:32-p271:32:32-p272:64:64-i64:64-f80:128-n8:16:32:64-S128"
target triple = "x86_64-pc-linux-gnu"

%struct.patient = type { [10 x i8], i32 }

@.str = private unnamed_addr constant [3 x i8] c"%d\00", align 1
@.str.1 = private unnamed_addr constant [5 x i8] c"%s%d\00", align 1
@pat = common dso_local global [100 x %struct.patient] zeroinitializer, align 16
@order = common dso_local global [100 x %struct.patient] zeroinitializer, align 16
@buffer = common dso_local global [100 x %struct.patient] zeroinitializer, align 16
@swap = common dso_local global %struct.patient zeroinitializer, align 4
@.str.2 = private unnamed_addr constant [3 x i8] c"%s\00", align 1
@.str.3 = private unnamed_addr constant [2 x i8] c"\0A\00", align 1

; Function Attrs: noinline nounwind uwtable
define dso_local i32 @main() #0 {
  %1 = alloca i32, align 4
  %2 = alloca i32, align 4
  %3 = alloca i32, align 4
  %4 = alloca i32, align 4
  %5 = alloca i32, align 4
  %6 = alloca i32, align 4
  %7 = alloca i32, align 4
  %8 = alloca i32, align 4
  store i32 0, i32* %1, align 4
  store i32 0, i32* %3, align 4
  store i32 0, i32* %4, align 4
  %9 = call i32 (i8*, ...) @__isoc99_scanf(i8* getelementptr inbounds ([3 x i8], [3 x i8]* @.str, i64 0, i64 0), i32* %5)
  store i32 0, i32* %2, align 4
  br label %10

10:                                               ; preds = %25, %0
  %11 = load i32, i32* %2, align 4
  %12 = load i32, i32* %5, align 4
  %13 = icmp slt i32 %11, %12
  br i1 %13, label %14, label %28

14:                                               ; preds = %10
  %15 = load i32, i32* %2, align 4
  %16 = sext i32 %15 to i64
  %17 = getelementptr inbounds [100 x %struct.patient], [100 x %struct.patient]* @pat, i64 0, i64 %16
  %18 = getelementptr inbounds %struct.patient, %struct.patient* %17, i32 0, i32 0
  %19 = getelementptr inbounds [10 x i8], [10 x i8]* %18, i64 0, i64 0
  %20 = load i32, i32* %2, align 4
  %21 = sext i32 %20 to i64
  %22 = getelementptr inbounds [100 x %struct.patient], [100 x %struct.patient]* @pat, i64 0, i64 %21
  %23 = getelementptr inbounds %struct.patient, %struct.patient* %22, i32 0, i32 1
  %24 = call i32 (i8*, ...) @__isoc99_scanf(i8* getelementptr inbounds ([5 x i8], [5 x i8]* @.str.1, i64 0, i64 0), i8* %19, i32* %23)
  br label %25

25:                                               ; preds = %14
  %26 = load i32, i32* %2, align 4
  %27 = add nsw i32 %26, 1
  store i32 %27, i32* %2, align 4
  br label %10

28:                                               ; preds = %10
  store i32 0, i32* %2, align 4
  br label %29

29:                                               ; preds = %52, %28
  %30 = load i32, i32* %2, align 4
  %31 = load i32, i32* %5, align 4
  %32 = icmp slt i32 %30, %31
  br i1 %32, label %33, label %55

33:                                               ; preds = %29
  %34 = load i32, i32* %2, align 4
  %35 = sext i32 %34 to i64
  %36 = getelementptr inbounds [100 x %struct.patient], [100 x %struct.patient]* @pat, i64 0, i64 %35
  %37 = getelementptr inbounds %struct.patient, %struct.patient* %36, i32 0, i32 1
  %38 = load i32, i32* %37, align 4
  %39 = icmp sge i32 %38, 60
  br i1 %39, label %40, label %51

40:                                               ; preds = %33
  %41 = load i32, i32* %3, align 4
  %42 = sext i32 %41 to i64
  %43 = getelementptr inbounds [100 x %struct.patient], [100 x %struct.patient]* @order, i64 0, i64 %42
  %44 = load i32, i32* %2, align 4
  %45 = sext i32 %44 to i64
  %46 = getelementptr inbounds [100 x %struct.patient], [100 x %struct.patient]* @pat, i64 0, i64 %45
  %47 = bitcast %struct.patient* %43 to i8*
  %48 = bitcast %struct.patient* %46 to i8*
  call void @llvm.memcpy.p0i8.p0i8.i64(i8* align 16 %47, i8* align 16 %48, i64 16, i1 false)
  %49 = load i32, i32* %3, align 4
  %50 = add nsw i32 %49, 1
  store i32 %50, i32* %3, align 4
  br label %51

51:                                               ; preds = %40, %33
  br label %52

52:                                               ; preds = %51
  %53 = load i32, i32* %2, align 4
  %54 = add nsw i32 %53, 1
  store i32 %54, i32* %2, align 4
  br label %29

55:                                               ; preds = %29
  store i32 0, i32* %2, align 4
  br label %56

56:                                               ; preds = %79, %55
  %57 = load i32, i32* %2, align 4
  %58 = load i32, i32* %5, align 4
  %59 = icmp slt i32 %57, %58
  br i1 %59, label %60, label %82

60:                                               ; preds = %56
  %61 = load i32, i32* %2, align 4
  %62 = sext i32 %61 to i64
  %63 = getelementptr inbounds [100 x %struct.patient], [100 x %struct.patient]* @pat, i64 0, i64 %62
  %64 = getelementptr inbounds %struct.patient, %struct.patient* %63, i32 0, i32 1
  %65 = load i32, i32* %64, align 4
  %66 = icmp slt i32 %65, 60
  br i1 %66, label %67, label %78

67:                                               ; preds = %60
  %68 = load i32, i32* %4, align 4
  %69 = sext i32 %68 to i64
  %70 = getelementptr inbounds [100 x %struct.patient], [100 x %struct.patient]* @buffer, i64 0, i64 %69
  %71 = load i32, i32* %2, align 4
  %72 = sext i32 %71 to i64
  %73 = getelementptr inbounds [100 x %struct.patient], [100 x %struct.patient]* @pat, i64 0, i64 %72
  %74 = bitcast %struct.patient* %70 to i8*
  %75 = bitcast %struct.patient* %73 to i8*
  call void @llvm.memcpy.p0i8.p0i8.i64(i8* align 16 %74, i8* align 16 %75, i64 16, i1 false)
  %76 = load i32, i32* %4, align 4
  %77 = add nsw i32 %76, 1
  store i32 %77, i32* %4, align 4
  br label %78

78:                                               ; preds = %67, %60
  br label %79

79:                                               ; preds = %78
  %80 = load i32, i32* %2, align 4
  %81 = add nsw i32 %80, 1
  store i32 %81, i32* %2, align 4
  br label %56

82:                                               ; preds = %56
  store i32 1, i32* %7, align 4
  br label %83

83:                                               ; preds = %131, %82
  %84 = load i32, i32* %7, align 4
  %85 = load i32, i32* %3, align 4
  %86 = icmp slt i32 %84, %85
  br i1 %86, label %87, label %134

87:                                               ; preds = %83
  store i32 0, i32* %8, align 4
  br label %88

88:                                               ; preds = %127, %87
  %89 = load i32, i32* %8, align 4
  %90 = load i32, i32* %3, align 4
  %91 = load i32, i32* %7, align 4
  %92 = sub nsw i32 %90, %91
  %93 = icmp slt i32 %89, %92
  br i1 %93, label %94, label %130

94:                                               ; preds = %88
  %95 = load i32, i32* %8, align 4
  %96 = sext i32 %95 to i64
  %97 = getelementptr inbounds [100 x %struct.patient], [100 x %struct.patient]* @order, i64 0, i64 %96
  %98 = getelementptr inbounds %struct.patient, %struct.patient* %97, i32 0, i32 1
  %99 = load i32, i32* %98, align 4
  %100 = load i32, i32* %8, align 4
  %101 = add nsw i32 %100, 1
  %102 = sext i32 %101 to i64
  %103 = getelementptr inbounds [100 x %struct.patient], [100 x %struct.patient]* @order, i64 0, i64 %102
  %104 = getelementptr inbounds %struct.patient, %struct.patient* %103, i32 0, i32 1
  %105 = load i32, i32* %104, align 4
  %106 = icmp slt i32 %99, %105
  br i1 %106, label %107, label %126

107:                                              ; preds = %94
  %108 = load i32, i32* %8, align 4
  %109 = add nsw i32 %108, 1
  %110 = sext i32 %109 to i64
  %111 = getelementptr inbounds [100 x %struct.patient], [100 x %struct.patient]* @order, i64 0, i64 %110
  %112 = bitcast %struct.patient* %111 to i8*
  call void @llvm.memcpy.p0i8.p0i8.i64(i8* align 4 getelementptr inbounds (%struct.patient, %struct.patient* @swap, i32 0, i32 0, i32 0), i8* align 16 %112, i64 16, i1 false)
  %113 = load i32, i32* %8, align 4
  %114 = add nsw i32 %113, 1
  %115 = sext i32 %114 to i64
  %116 = getelementptr inbounds [100 x %struct.patient], [100 x %struct.patient]* @order, i64 0, i64 %115
  %117 = load i32, i32* %8, align 4
  %118 = sext i32 %117 to i64
  %119 = getelementptr inbounds [100 x %struct.patient], [100 x %struct.patient]* @order, i64 0, i64 %118
  %120 = bitcast %struct.patient* %116 to i8*
  %121 = bitcast %struct.patient* %119 to i8*
  call void @llvm.memcpy.p0i8.p0i8.i64(i8* align 16 %120, i8* align 16 %121, i64 16, i1 false)
  %122 = load i32, i32* %8, align 4
  %123 = sext i32 %122 to i64
  %124 = getelementptr inbounds [100 x %struct.patient], [100 x %struct.patient]* @order, i64 0, i64 %123
  %125 = bitcast %struct.patient* %124 to i8*
  call void @llvm.memcpy.p0i8.p0i8.i64(i8* align 16 %125, i8* align 4 getelementptr inbounds (%struct.patient, %struct.patient* @swap, i32 0, i32 0, i32 0), i64 16, i1 false)
  br label %126

126:                                              ; preds = %107, %94
  br label %127

127:                                              ; preds = %126
  %128 = load i32, i32* %8, align 4
  %129 = add nsw i32 %128, 1
  store i32 %129, i32* %8, align 4
  br label %88

130:                                              ; preds = %88
  br label %131

131:                                              ; preds = %130
  %132 = load i32, i32* %7, align 4
  %133 = add nsw i32 %132, 1
  store i32 %133, i32* %7, align 4
  br label %83

134:                                              ; preds = %83
  store i32 0, i32* %8, align 4
  br label %135

135:                                              ; preds = %147, %134
  %136 = load i32, i32* %8, align 4
  %137 = load i32, i32* %3, align 4
  %138 = icmp slt i32 %136, %137
  br i1 %138, label %139, label %150

139:                                              ; preds = %135
  %140 = load i32, i32* %8, align 4
  %141 = sext i32 %140 to i64
  %142 = getelementptr inbounds [100 x %struct.patient], [100 x %struct.patient]* @order, i64 0, i64 %141
  %143 = getelementptr inbounds %struct.patient, %struct.patient* %142, i32 0, i32 0
  %144 = getelementptr inbounds [10 x i8], [10 x i8]* %143, i64 0, i64 0
  %145 = call i32 (i8*, ...) @printf(i8* getelementptr inbounds ([3 x i8], [3 x i8]* @.str.2, i64 0, i64 0), i8* %144)
  %146 = call i32 (i8*, ...) @printf(i8* getelementptr inbounds ([2 x i8], [2 x i8]* @.str.3, i64 0, i64 0))
  br label %147

147:                                              ; preds = %139
  %148 = load i32, i32* %8, align 4
  %149 = add nsw i32 %148, 1
  store i32 %149, i32* %8, align 4
  br label %135

150:                                              ; preds = %135
  store i32 0, i32* %2, align 4
  br label %151

151:                                              ; preds = %163, %150
  %152 = load i32, i32* %2, align 4
  %153 = load i32, i32* %4, align 4
  %154 = icmp slt i32 %152, %153
  br i1 %154, label %155, label %166

155:                                              ; preds = %151
  %156 = load i32, i32* %2, align 4
  %157 = sext i32 %156 to i64
  %158 = getelementptr inbounds [100 x %struct.patient], [100 x %struct.patient]* @buffer, i64 0, i64 %157
  %159 = getelementptr inbounds %struct.patient, %struct.patient* %158, i32 0, i32 0
  %160 = getelementptr inbounds [10 x i8], [10 x i8]* %159, i64 0, i64 0
  %161 = call i32 (i8*, ...) @printf(i8* getelementptr inbounds ([3 x i8], [3 x i8]* @.str.2, i64 0, i64 0), i8* %160)
  %162 = call i32 (i8*, ...) @printf(i8* getelementptr inbounds ([2 x i8], [2 x i8]* @.str.3, i64 0, i64 0))
  br label %163

163:                                              ; preds = %155
  %164 = load i32, i32* %2, align 4
  %165 = add nsw i32 %164, 1
  store i32 %165, i32* %2, align 4
  br label %151

166:                                              ; preds = %151
  %167 = load i32, i32* %1, align 4
  ret i32 %167
}

declare dso_local i32 @__isoc99_scanf(i8*, ...) #1

; Function Attrs: argmemonly nounwind willreturn
declare void @llvm.memcpy.p0i8.p0i8.i64(i8* noalias nocapture writeonly, i8* noalias nocapture readonly, i64, i1 immarg) #2

declare dso_local i32 @printf(i8*, ...) #1


!llvm.module.flags = !{!0}
!llvm.ident = !{!1}

!0 = !{i32 1, !"wchar_size", i32 4}
!1 = !{!"clang version 10.0.0-4ubuntu1 "}
